; Function Attrs: mustprogress uwtable
define hidden void @_ZN11realclosure7manager5powerERKNS_3numEjRS1_(ptr noundef nonnull readonly align 8 captures(none) dereferenceable(8) %0, ptr noundef nonnull align 8 dereferenceable(8) %1, i32 noundef %2, ptr noundef nonnull align 8 dereferenceable(8) %3) local_unnamed_addr #5 align 2 personality ptr @__gxx_personality_v0 {
  %5 = alloca %"class.realclosure::save_interval_ctx", align 8
  call void @llvm.lifetime.start.p0(i64 8, ptr nonnull %5) #24
  %6 = load ptr, ptr %0, align 8, !tbaa !11
  store ptr %6, ptr %5, align 8, !tbaa !91
  invoke void @_ZN11realclosure7manager3imp5powerERKNS_3numEjRS2_(ptr noundef nonnull align 8 dereferenceable(1497) %6, ptr noundef nonnull align 8 dereferenceable(8) %1, i32 noundef %2, ptr noundef nonnull align 8 dereferenceable(8) %3)
          to label %7 unwind label %13

7:                                                ; preds = %4
  %8 = getelementptr inbounds nuw i8, ptr %6, i64 1392
  invoke void @_ZN11realclosure7manager3imp23restore_saved_intervalsINS_5valueEEEvR10ptr_vectorIT_E(ptr noundef nonnull align 8 dereferenceable(1497) %6, ptr noundef nonnull align 8 dereferenceable(8) %8)
          to label %.noexc.i unwind label %10

.noexc.i:                                         ; preds = %7
  %9 = getelementptr inbounds nuw i8, ptr %6, i64 1400
  invoke void @_ZN11realclosure7manager3imp23restore_saved_intervalsINS_9extensionEEEvR10ptr_vectorIT_E(ptr noundef nonnull align 8 dereferenceable(1497) %6, ptr noundef nonnull align 8 dereferenceable(8) %9)
          to label %_ZN11realclosure17save_interval_ctxD2Ev.exit unwind label %10

10:                                               ; preds = %.noexc.i, %7
  %11 = landingpad { ptr, i32 }
          catch ptr null
  %12 = extractvalue { ptr, i32 } %11, 0
  tail call void @__clang_call_terminate(ptr %12) #25
  unreachable

_ZN11realclosure17save_interval_ctxD2Ev.exit:     ; preds = %.noexc.i
  call void @llvm.lifetime.end.p0(i64 8, ptr nonnull %5) #24
  ret void

13:                                               ; preds = %4
  %14 = landingpad { ptr, i32 }
          cleanup
  call void @_ZN11realclosure17save_interval_ctxD2Ev(ptr noundef nonnull align 8 dereferenceable(8) %5) #24
  call void @llvm.lifetime.end.p0(i64 8, ptr nonnull %5) #24
  resume { ptr, i32 } %14
}